; Function Attrs: mustprogress nofree norecurse nosync nounwind memory(readwrite, inaccessiblemem: none) uwtable
define void @_ZNK8QuantLib14SabrVolSurface11sabrGuessesERKNS_4DateE(ptr dead_on_unwind noalias nocapture writable writeonly sret(%"struct.std::array") align 8 %agg.result, ptr nocapture noundef nonnull readonly align 8 dereferenceable(256) %this, ptr nocapture noundef nonnull readonly align 8 dereferenceable(8) %d) local_unnamed_addr #13 align 2 {
entry:
  %optionDates_ = getelementptr inbounds nuw i8, ptr %this, i64 152
  %0 = load ptr, ptr %optionDates_, align 8, !tbaa !99
  %1 = load i64, ptr %d, align 8, !tbaa !125
  %2 = load i64, ptr %0, align 8, !tbaa !125
  %cmp.i.not = icmp sgt i64 %1, %2
  br i1 %cmp.i.not, label %while.cond.preheader, label %if.then

while.cond.preheader:                             ; preds = %entry
  %_M_finish.i = getelementptr inbounds nuw i8, ptr %this, i64 160
  %3 = load ptr, ptr %_M_finish.i, align 8, !tbaa !103
  %sub.ptr.lhs.cast.i = ptrtoint ptr %3 to i64
  %sub.ptr.rhs.cast.i = ptrtoint ptr %0 to i64
  %sub.ptr.sub.i = sub i64 %sub.ptr.lhs.cast.i, %sub.ptr.rhs.cast.i
  %sub.ptr.div.i = ashr exact i64 %sub.ptr.sub.i, 3
  %sub = add nsw i64 %sub.ptr.div.i, -1
  %cmp7.not = icmp eq i64 %sub, 0
  br i1 %cmp7.not, label %while.end, label %land.rhs

if.then:                                          ; preds = %entry
  %sabrGuesses_ = getelementptr inbounds nuw i8, ptr %this, i64 232
  %4 = load ptr, ptr %sabrGuesses_, align 8, !tbaa !98
  br label %return

land.rhs:                                         ; preds = %while.cond.preheader, %while.body
  %i.08 = phi i64 [ %inc, %while.body ], [ 0, %while.cond.preheader ]
  %add.ptr.i = getelementptr inbounds nuw %"class.QuantLib::Date", ptr %0, i64 %i.08
  %5 = load i64, ptr %add.ptr.i, align 8, !tbaa !125
  %cmp.i5 = icmp slt i64 %1, %5
  br i1 %cmp.i5, label %while.body, label %while.end

while.body:                                       ; preds = %land.rhs
  %inc = add nuw i64 %i.08, 1
  %exitcond.not = icmp eq i64 %inc, %sub
  br i1 %exitcond.not, label %while.end, label %land.rhs, !llvm.loop !126

while.end:                                        ; preds = %land.rhs, %while.body, %while.cond.preheader
  %i.0.lcssa = phi i64 [ 0, %while.cond.preheader ], [ %sub, %while.body ], [ %i.08, %land.rhs ]
  %sabrGuesses_9 = getelementptr inbounds nuw i8, ptr %this, i64 232
  %6 = load ptr, ptr %sabrGuesses_9, align 8, !tbaa !98
  %add.ptr.i6 = getelementptr inbounds nuw %"struct.std::array", ptr %6, i64 %i.0.lcssa
  br label %return

return:                                           ; preds = %while.end, %if.then
  %add.ptr.i6.sink = phi ptr [ %add.ptr.i6, %while.end ], [ %4, %if.then ]
  tail call void @llvm.memcpy.p0.p0.i64(ptr noundef nonnull align 8 dereferenceable(32) %agg.result, ptr noundef nonnull align 8 dereferenceable(32) %add.ptr.i6.sink, i64 32, i1 false)
  ret void
}